target datalayout = "e-m:e-p270:32:32-p271:32:32-p272:64:64-i64:64-i128:128-f80:128-n8:16:32:64-S128"
target triple = "x86_64-pc-linux-gnu"

%struct.commit_name = type { %struct.hashmap_entry, %struct.object_id, ptr, i8, %struct.object_id, ptr }
%struct.hashmap_entry = type { ptr, i32 }
%struct.object_id = type { [32 x i8], i32 }

; Function Attrs: inlinehint nounwind uwtable
define internal i32 @oideq(ptr noundef %0, ptr noundef %1) #4 {
  %3 = alloca ptr, align 8
  %4 = alloca ptr, align 8
  store ptr %0, ptr %3, align 8, !tbaa !74
  store ptr %1, ptr %4, align 8, !tbaa !74
  %5 = load ptr, ptr %3, align 8, !tbaa !74
  %6 = getelementptr inbounds nuw %struct.object_id, ptr %5, i32 0, i32 0
  %7 = getelementptr inbounds [32 x i8], ptr %6, i64 0, i64 0
  %8 = load ptr, ptr %4, align 8, !tbaa !74
  %9 = getelementptr inbounds nuw %struct.object_id, ptr %8, i32 0, i32 0
  %10 = getelementptr inbounds [32 x i8], ptr %9, i64 0, i64 0
  %11 = call i32 @memcmp(ptr noundef %7, ptr noundef %10, i64 noundef 32) #11
  %12 = icmp ne i32 %11, 0
  %13 = xor i1 %12, true
  %14 = zext i1 %13 to i32
  ret i32 %14
}

; Function Attrs: nounwind uwtable
define internal i32 @commit_name_neq(ptr noundef %0, ptr noundef %1, ptr noundef %2, ptr noundef %3) #0 {
  %5 = alloca ptr, align 8
  %6 = alloca ptr, align 8
  %7 = alloca ptr, align 8
  %8 = alloca ptr, align 8
  %9 = alloca ptr, align 8
  %10 = alloca ptr, align 8
  store ptr %0, ptr %5, align 8, !tbaa !68
  store ptr %1, ptr %6, align 8, !tbaa !70
  store ptr %2, ptr %7, align 8, !tbaa !70
  store ptr %3, ptr %8, align 8, !tbaa !68
  call void @llvm.lifetime.start.p0(i64 8, ptr %9) #9
  call void @llvm.lifetime.start.p0(i64 8, ptr %10) #9
  %11 = load ptr, ptr %6, align 8, !tbaa !70
  %12 = getelementptr inbounds i8, ptr %11, i64 0
  store ptr %12, ptr %9, align 8, !tbaa !72
  %13 = load ptr, ptr %7, align 8, !tbaa !70
  %14 = getelementptr inbounds i8, ptr %13, i64 0
  store ptr %14, ptr %10, align 8, !tbaa !72
  %15 = load ptr, ptr %9, align 8, !tbaa !72
  %16 = getelementptr inbounds nuw %struct.commit_name, ptr %15, i32 0, i32 1
  %17 = load ptr, ptr %8, align 8, !tbaa !68
  %18 = icmp ne ptr %17, null
  br i1 %18, label %19, label %21

19:                                               ; preds = %4
  %20 = load ptr, ptr %8, align 8, !tbaa !68
  br label %24

21:                                               ; preds = %4
  %22 = load ptr, ptr %10, align 8, !tbaa !72
  %23 = getelementptr inbounds nuw %struct.commit_name, ptr %22, i32 0, i32 1
  br label %24

24:                                               ; preds = %21, %19
  %25 = phi ptr [ %20, %19 ], [ %23, %21 ]
  %26 = call i32 @oideq(ptr noundef %16, ptr noundef %25)
  %27 = icmp ne i32 %26, 0
  %28 = xor i1 %27, true
  %29 = zext i1 %28 to i32
  call void @llvm.lifetime.end.p0(i64 8, ptr %10) #9
  call void @llvm.lifetime.end.p0(i64 8, ptr %9) #9
  ret i32 %29
}