; Function Attrs: mustprogress nofree nounwind willreturn memory(read, inaccessiblemem: none) uwtable
define internal range(i32 0, 2) i32 @commit_name_neq(ptr readnone captures(none) %0, ptr noundef readonly captures(none) %1, ptr noundef readonly captures(none) %2, ptr noundef readonly %3) #7 {
  %5 = getelementptr inbounds nuw i8, ptr %1, i64 16
  %.not = icmp eq ptr %3, null
  %6 = getelementptr inbounds nuw i8, ptr %2, i64 16
  %7 = select i1 %.not, ptr %6, ptr %3
  %bcmp.i = tail call i32 @bcmp(ptr noundef nonnull readonly dereferenceable(32) %5, ptr noundef nonnull readonly dereferenceable(32) %7, i64 32)
  %.not.i = icmp ne i32 %bcmp.i, 0
  %8 = zext i1 %.not.i to i32
  ret i32 %8
}